(lp0
(lp1
S'SL'
p2
aS'KENEMA'
p3
aI143137
aF7.87687
aF-11.190245
aa(lp4
g2
aS'BOMBALI'
p5
aI409254
aF9.284438
aF-12.164489
aa(lp6
g2
aS'TONKOLILI'
p7
aI350353
aF8.618846
aF-11.841731
aa(lp8
g2
aS'KONO'
p9
aI337954
aF8.706871
aF-10.933683
aa(lp10
g2
aS'PUJEHUN'
p11
aI240682
aF7.318547
aF-11.5792
aa(lp12
g2
aS'FREETOWN'
p13
aI802639
aF8.48400258773548
aF-13.229942321777344
aa(lp14
g2
aS'BO'
p15
aI174354
aF7.9647222
aF-11.7383333
aa(lp16
g2
aS'KOINADUGU'
p17
aI236269
aF9.509906
aF-11.346011
aa(lp18
g2
aS'KAILAHUN'
p19
aI14085
aF8.278903
aF-10.572998
aa(lp20
g2
aS'MOYAMBA'
p21
aI258909
aF8.062898
aF-12.444007
aa(lp22
g2
aS'WESTERN RURAL'
p23
aI0
aF8.323185
aF-13.094851
aa(lp24
g2
aS'KAMBIA'
p25
aI281141
aF9.182514
aF-12.813094
aa(lp26
g2
aS'BONTHE'
p27
aI131580
aF7.516217
aF-12.335906
aa(lp28
g2
aS'PORT LOKO'
p29
aI21308
aF8.7666667
aF-12.7833333
aa(lp30
S'LR'
p31
aS'GRAND GEDEH'
p32
aI25678
aF6.068462
aF-8.135585
aa(lp33
g31
aS'GRAND BASSA'
p34
aI25731
aF5.881086
aF-10.044724
aa(lp35
g31
aS'MARGIBI'
p36
aI33945
aF6.531469
aF-10.353574
aa(lp37
g31
aS'LOFA'
p38
aI26594
aF8.4219444
aF-9.7477778
aa(lp39
g31
aS'RIVERCESS'
p40
aI72000
aF6.0
aF-9.3333333
aa(lp41
g31
aS'MONTSERRADO'
p42
aI939524
aF6.300539726631287
aF-10.796899795532227
aa(lp43
g31
aS'MARYLAND'
p44
aI32661
aF4.378199
aF-7.710813
aa(lp45
g31
aS'BONG'
p46
aI45835
aF6.9955556
aF-9.4722222
aa(lp47
g31
aS'SINOE'
p48
aI16434
aF5.0111111
aF-9.0388889
aa(lp49
S'GN'
p50
aS'DALABA'
p51
aI154820
aF10.75
aF-12.3
aa(lp52
g50
aS'DABOLA'
p53
aI114250
aF10.6
aF-11.116667
aa(lp54
g50
aS'TELIMELE'
p55
aI283642
aF10.9166667
aF-13.3333333
aa(lp56
g50
aS'LOLA'
p57
aI124393
aF7.833333
aF-8.333333
aa(lp58
g50
aS'SIGUIRI'
p59
aI243888
aF11.6666667
aF-9.5
aa(lp60
g50
aS'COYAH'
p61
aI77103
aF9.705556
aF-13.376944
aa(lp62
g50
aS'KOUROUSSA'
p63
aI159600
aF10.666667
aF-9.916667
aa(lp64
g50
aS'BEYLA'
p65
aI188045
aF8.9166667
aF-8.4166667
aa(lp66
g50
aS'CONAKRY'
p67
aI1767200
aF9.537949753673535
aF-13.677291870117188
aa(lp68
g50
aS'KINDIA'
p69
aI117062
aF10.056923953951774
aF-12.865762710571289
aa(lp70
g50
aS'MALI'
p71
aI245870
aF12.0833333
aF-12.0833333
aa(lp72
g50
aS'PITA'
p73
aI265689
aF10.833333
aF-12.583333
aa(lp74
g50
aS'KEROUANE'
p75
aI124625
aF9.1666667
aF-9.0833333
aa(lp76
g50
aS'FORECARIAH'
p77
aI135817
aF9.4333333
aF-13.1
aa(lp78
g50
aS'DINGUIRAYE'
p79
aI155636
aF11.545
aF-10.675
aa(lp80
g50
aS'TOUGUE'
p81
aI132086
aF11.4666667
aF-11.6
aa(lp82
g50
aS'GUECKEDOU'
p83
aI79140
aF8.567441790924521
aF-10.133600234985352
aa(lp84
g50
aS'KANKAN'
p85
aI114009
aF10.38542172084099
aF-9.30567741394043
aa(lp86
g50
aS'YOMOU'
p87
aI86736
aF7.5
aF-9.166667
aa(lp88
g50
aS'MACENTA'
p89
aI296192
aF8.5
aF-9.416667
aa(lp90
g50
aS'FRIA'
p91
aI82073
aF10.416667
aF-13.583333
aa(lp92
g50
aS'BOKE'
p93
aI61527
aF10.6666667
aF-14.6
aa(lp94
g50
aS'DUBREKA'
p95
aI0
aF10.25
aF-13.4166667
aa(lp96
g50
aS'BOFFA'
p97
aI165196
aF10.333333
aF-14.166667
aa.