(lp0
(lp1
S'SL'
p2
aS'KENEMA'
p3
aI493928
aF7.951709
aF-11.190037
aa(lp4
g2
aS'BOMBALI'
p5
aI409254
aF9.284438
aF-12.164489
aa(lp6
g2
aS'TONKOLILI'
p7
aI350353
aF8.618846
aF-11.841731
aa(lp8
g2
aS'KONO'
p9
aI337954
aF8.706871
aF-10.933683
aa(lp10
g2
aS'PUJEHUN'
p11
aI240682
aF7.318547
aF-11.5792
aa(lp12
g2
aS'FREETOWN'
p13
aI802639
aF8.48400258773548
aF-13.229942321777344
aa(lp14
g2
aS'BO'
p15
aI482884
aF7.988772
aF-11.673402
aa(lp16
g2
aS'KOINADUGU'
p17
aI236269
aF9.509906
aF-11.346011
aa(lp18
g2
aS'KAILAHUN'
p19
aI363767
aF8.107683
aF-10.751456
aa(lp20
g2
aS'MOYAMBA'
p21
aI258909
aF8.062898
aF-12.444007
aa(lp22
g2
aS'KAMBIA'
p23
aI281141
aF9.182514
aF-12.813094
aa(lp24
g2
aS'BONTHE'
p25
aI131580
aF7.516217
aF-12.335906
aa(lp26
g2
aS'PORT LOKO'
p27
aI460230
aF8.723858
aF-12.759044
aa(lp28
S'LR'
p29
aS'GRAND GEDEH'
p30
aI25678
aF6.068462
aF-8.135585
aa(lp31
g29
aS'GRAND BASSA'
p32
aI25731
aF5.881086
aF-10.044724
aa(lp33
g29
aS'MARGIBI'
p34
aI33945
aF6.531469
aF-10.353574
aa(lp35
g29
aS'LOFA'
p36
aI26594
aF8.4219444
aF-9.7477778
aa(lp37
g29
aS'RIVERCESS'
p38
aI72000
aF6.0
aF-9.3333333
aa(lp39
g29
aS'MONTSERRADO'
p40
aI939524
aF6.300539726631287
aF-10.796899795532227
aa(lp41
g29
aS'MARYLAND'
p42
aI32661
aF4.378199
aF-7.710813
aa(lp43
g29
aS'BONG'
p44
aI45835
aF6.9955556
aF-9.4722222
aa(lp45
g29
aS'SINOE'
p46
aI16434
aF5.0111111
aF-9.0388889
aa(lp47
S'GN'
p48
aS'DALABA'
p49
aI154820
aF10.75
aF-12.3
aa(lp50
g48
aS'DABOLA'
p51
aI114250
aF10.6
aF-11.116667
aa(lp52
g48
aS'TELIMELE'
p53
aI283642
aF10.9166667
aF-13.3333333
aa(lp54
g48
aS'LOLA'
p55
aI124393
aF7.833333
aF-8.333333
aa(lp56
g48
aS'SIGUIRI'
p57
aI243888
aF11.6666667
aF-9.5
aa(lp58
g48
aS'COYAH'
p59
aI77103
aF9.705556
aF-13.376944
aa(lp60
g48
aS'KOUROUSSA'
p61
aI159600
aF10.666667
aF-9.916667
aa(lp62
g48
aS'BEYLA'
p63
aI188045
aF8.9166667
aF-8.4166667
aa(lp64
g48
aS'CONAKRY'
p65
aI1767200
aF9.537949753673535
aF-13.677291870117188
aa(lp66
g48
aS'KINDIA'
p67
aI117062
aF10.056923953951774
aF-12.865762710571289
aa(lp68
g48
aS'MALI'
p69
aI245870
aF12.0833333
aF-12.0833333
aa(lp70
g48
aS'PITA'
p71
aI265689
aF10.833333
aF-12.583333
aa(lp72
g48
aS'KEROUANE'
p73
aI124625
aF9.1666667
aF-9.0833333
aa(lp74
g48
aS'FORECARIAH'
p75
aI135817
aF9.4333333
aF-13.1
aa(lp76
g48
aS'DINGUIRAYE'
p77
aI155636
aF11.545
aF-10.675
aa(lp78
g48
aS'TOUGUE'
p79
aI132086
aF11.4666667
aF-11.6
aa(lp80
g48
aS'GUECKEDOU'
p81
aI79140
aF8.567441790924521
aF-10.133600234985352
aa(lp82
g48
aS'KANKAN'
p83
aI114009
aF10.38542172084099
aF-9.30567741394043
aa(lp84
g48
aS'YOMOU'
p85
aI86736
aF7.5
aF-9.166667
aa(lp86
g48
aS'MACENTA'
p87
aI296192
aF8.5
aF-9.416667
aa(lp88
g48
aS'FRIA'
p89
aI82073
aF10.416667
aF-13.583333
aa(lp90
g48
aS'BOKE'
p91
aI61527
aF10.6666667
aF-14.6
aa(lp92
g48
aS'BOFFA'
p93
aI165196
aF10.333333
aF-14.166667
aa(lp94
g48
aS'DUBREKA'
p95
aI8300
aF10.25
aF-13.4166667
aa(lp96
g29
aS'GBARPOLU'
p97
aI83758
aF7.1666667
aF-10.4166667
aa(lp98
g29
aS'GRAND KRU'
p99
aI57106
aF4.9166667
aF-8.25
aa(lp100
g29
aS'NIMBA'
p101
aI462026
aF6.75
aF-8.75
aa(lp102
g29
aS'BOMI'
p103
aI84119
aF6.666667
aF-10.833333
aa(lp104
g29
aS'RIVER GEE'
p105
aI66789
aF5.25
aF-7.9166667
aa(lp106
g2
aS'WESTERN RURAL'
p107
aI197098
aF8.323185
aF-13.094851
aa(lp108
g29
aS'GRAND CAPE MOUNT'
p109
aI129055
aF7.1666667
aF-11.0
aa(lp110
g48
aS"N'ZEREKORE"
p111
aI300000
aF7.75
aF-8.816667
aa(lp112
g48
aS'FARANAH'
p113
aI78108
aF10.3375
aF-10.69583335
aa.